target datalayout = "e-m:e-p270:32:32-p271:32:32-p272:64:64-i64:64-i128:128-f80:128-n8:16:32:64-S128"
target triple = "x86_64-pc-linux-gnu"

; Function Attrs: inlinehint nounwind uwtable
define internal i64 @mi_bitmap_mask_(i64 noundef %0, i64 noundef %1) #0 {
  %3 = alloca i64, align 8
  %4 = alloca i64, align 8
  %5 = alloca i64, align 8
  store i64 %0, ptr %4, align 8, !tbaa !7
  store i64 %1, ptr %5, align 8, !tbaa !7
  %6 = load i64, ptr %4, align 8, !tbaa !7
  %7 = icmp uge i64 %6, 64
  br i1 %7, label %8, label %9

8:                                                ; preds = %2
  store i64 -1, ptr %3, align 8
  br label %19

9:                                                ; preds = %2
  %10 = load i64, ptr %4, align 8, !tbaa !7
  %11 = icmp eq i64 %10, 0
  br i1 %11, label %12, label %13

12:                                               ; preds = %9
  store i64 0, ptr %3, align 8
  br label %19

13:                                               ; preds = %9
  %14 = load i64, ptr %4, align 8, !tbaa !7
  %15 = shl i64 1, %14
  %16 = sub i64 %15, 1
  %17 = load i64, ptr %5, align 8, !tbaa !7
  %18 = shl i64 %16, %17
  store i64 %18, ptr %3, align 8
  br label %19

19:                                               ; preds = %13, %12, %8
  %20 = load i64, ptr %3, align 8
  ret i64 %20
}

; Function Attrs: inlinehint nounwind uwtable
define internal i64 @mi_bitmap_index_bit_in_field(i64 noundef %0) #0 {
  %2 = alloca i64, align 8
  store i64 %0, ptr %2, align 8, !tbaa !7
  %3 = load i64, ptr %2, align 8, !tbaa !7
  %4 = urem i64 %3, 64
  ret i64 %4
}

; Function Attrs: inlinehint nounwind uwtable
define internal i64 @mi_bitmap_index_field(i64 noundef %0) #0 {
  %2 = alloca i64, align 8
  store i64 %0, ptr %2, align 8, !tbaa !7
  %3 = load i64, ptr %2, align 8, !tbaa !7
  %4 = udiv i64 %3, 64
  ret i64 %4
}

; Function Attrs: nounwind uwtable
define internal zeroext i1 @mi_bitmap_is_claimedx(ptr noundef %0, i64 noundef %1, i64 noundef %2, i64 noundef %3, ptr noundef %4) #2 {
  %6 = alloca ptr, align 8
  %7 = alloca i64, align 8
  %8 = alloca i64, align 8
  %9 = alloca i64, align 8
  %10 = alloca ptr, align 8
  %11 = alloca i64, align 8
  %12 = alloca i64, align 8
  %13 = alloca i64, align 8
  %14 = alloca i64, align 8
  %15 = alloca i64, align 8
  store ptr %0, ptr %6, align 8, !tbaa !3
  store i64 %1, ptr %7, align 8, !tbaa !7
  store i64 %2, ptr %8, align 8, !tbaa !7
  store i64 %3, ptr %9, align 8, !tbaa !7
  store ptr %4, ptr %10, align 8, !tbaa !19
  call void @llvm.lifetime.start.p0(i64 8, ptr %11) #5
  %16 = load i64, ptr %9, align 8, !tbaa !7
  %17 = call i64 @mi_bitmap_index_field(i64 noundef %16) #6
  store i64 %17, ptr %11, align 8, !tbaa !7
  call void @llvm.lifetime.start.p0(i64 8, ptr %12) #5
  %18 = load i64, ptr %9, align 8, !tbaa !7
  %19 = call i64 @mi_bitmap_index_bit_in_field(i64 noundef %18) #6
  store i64 %19, ptr %12, align 8, !tbaa !7
  call void @llvm.lifetime.start.p0(i64 8, ptr %13) #5
  %20 = load i64, ptr %8, align 8, !tbaa !7
  %21 = load i64, ptr %12, align 8, !tbaa !7
  %22 = call i64 @mi_bitmap_mask_(i64 noundef %20, i64 noundef %21) #6
  store i64 %22, ptr %13, align 8, !tbaa !7
  call void @llvm.lifetime.start.p0(i64 8, ptr %14) #5
  %23 = load ptr, ptr %6, align 8, !tbaa !3
  %24 = load i64, ptr %11, align 8, !tbaa !7
  %25 = getelementptr inbounds nuw i64, ptr %23, i64 %24
  %26 = load atomic i64, ptr %25 monotonic, align 8
  store i64 %26, ptr %15, align 8
  %27 = load i64, ptr %15, align 8, !tbaa !7
  store i64 %27, ptr %14, align 8, !tbaa !7
  %28 = load ptr, ptr %10, align 8, !tbaa !19
  %29 = icmp ne ptr %28, null
  br i1 %29, label %30, label %37

30:                                               ; preds = %5
  %31 = load i64, ptr %14, align 8, !tbaa !7
  %32 = load i64, ptr %13, align 8, !tbaa !7
  %33 = and i64 %31, %32
  %34 = icmp ne i64 %33, 0
  %35 = load ptr, ptr %10, align 8, !tbaa !19
  %36 = zext i1 %34 to i8
  store i8 %36, ptr %35, align 1, !tbaa !11
  br label %37

37:                                               ; preds = %30, %5
  %38 = load i64, ptr %14, align 8, !tbaa !7
  %39 = load i64, ptr %13, align 8, !tbaa !7
  %40 = and i64 %38, %39
  %41 = load i64, ptr %13, align 8, !tbaa !7
  %42 = icmp eq i64 %40, %41
  call void @llvm.lifetime.end.p0(i64 8, ptr %14) #5
  call void @llvm.lifetime.end.p0(i64 8, ptr %13) #5
  call void @llvm.lifetime.end.p0(i64 8, ptr %12) #5
  call void @llvm.lifetime.end.p0(i64 8, ptr %11) #5
  ret i1 %42
}

; Function Attrs: nounwind uwtable
define hidden zeroext i1 @_mi_bitmap_is_any_claimed(ptr noundef %0, i64 noundef %1, i64 noundef %2, i64 noundef %3) #2 {
  %5 = alloca ptr, align 8
  %6 = alloca i64, align 8
  %7 = alloca i64, align 8
  %8 = alloca i64, align 8
  %9 = alloca i8, align 1
  store ptr %0, ptr %5, align 8, !tbaa !3
  store i64 %1, ptr %6, align 8, !tbaa !7
  store i64 %2, ptr %7, align 8, !tbaa !7
  store i64 %3, ptr %8, align 8, !tbaa !7
  call void @llvm.lifetime.start.p0(i64 1, ptr %9) #5
  %10 = load ptr, ptr %5, align 8, !tbaa !3
  %11 = load i64, ptr %6, align 8, !tbaa !7
  %12 = load i64, ptr %7, align 8, !tbaa !7
  %13 = load i64, ptr %8, align 8, !tbaa !7
  %14 = call zeroext i1 @mi_bitmap_is_claimedx(ptr noundef %10, i64 noundef %11, i64 noundef %12, i64 noundef %13, ptr noundef %9) #6
  %15 = load i8, ptr %9, align 1, !tbaa !11, !range !13, !noundef !14
  %16 = trunc i8 %15 to i1
  call void @llvm.lifetime.end.p0(i64 1, ptr %9) #5
  ret i1 %16
}