; Function Attrs: mustprogress nofree norecurse nounwind willreturn memory(argmem: readwrite) uwtable
define hidden zeroext i1 @_mi_bitmap_is_any_claimed(ptr noundef readonly captures(none) %0, i64 noundef %1, i64 noundef %2, i64 noundef %3) local_unnamed_addr #3 {
  %5 = and i64 %3, 63
  %6 = icmp ugt i64 %2, 63
  br i1 %6, label %mi_bitmap_is_claimedx.exit, label %7

7:                                                ; preds = %4
  %8 = icmp eq i64 %2, 0
  br i1 %8, label %mi_bitmap_is_claimedx.exit, label %9

9:                                                ; preds = %7
  %notmask.i.i = shl nsw i64 -1, %2
  %10 = xor i64 %notmask.i.i, -1
  %11 = shl i64 %10, %5
  br label %mi_bitmap_is_claimedx.exit

mi_bitmap_is_claimedx.exit:                       ; preds = %4, %7, %9
  %.0.i.i = phi i64 [ %11, %9 ], [ -1, %4 ], [ 0, %7 ]
  %12 = lshr i64 %3, 6
  %13 = getelementptr inbounds nuw i64, ptr %0, i64 %12
  %14 = load atomic i64, ptr %13 monotonic, align 8
  %.pre.i = and i64 %14, %.0.i.i
  %15 = icmp ne i64 %.pre.i, 0
  ret i1 %15
}